target datalayout = "e-m:e-p270:32:32-p271:32:32-p272:64:64-i64:64-i128:128-f80:128-n8:16:32:64-S128"
target triple = "x86_64-pc-linux-gnu"

%struct.uat_esp_sa_record_t = type { i8, ptr, ptr, ptr, i8, ptr, ptr, i32, i8, ptr, i8, ptr, ptr, i32, i8, i32 }

@.str.138 = private unnamed_addr constant [1 x i8] zeroinitializer, align 1

; Function Attrs: null_pointer_is_valid sspstrong uwtable
define internal void @uat_esp_sa_records_encryption_key_string_tostr_cb(ptr noundef %0, ptr noundef %1, ptr noundef %2, ptr noundef %3, ptr noundef %4) #0 {
  %6 = alloca ptr, align 8
  %7 = alloca ptr, align 8
  %8 = alloca ptr, align 8
  %9 = alloca ptr, align 8
  %10 = alloca ptr, align 8
  store ptr %0, ptr %6, align 8
  store ptr %1, ptr %7, align 8
  store ptr %2, ptr %8, align 8
  store ptr %3, ptr %9, align 8
  store ptr %4, ptr %10, align 8
  %11 = load ptr, ptr %6, align 8
  %12 = getelementptr inbounds nuw %struct.uat_esp_sa_record_t, ptr %11, i32 0, i32 5
  %13 = load ptr, ptr %12, align 8
  %14 = icmp ne ptr %13, null
  br i1 %14, label %15, label %27

15:                                               ; preds = %5
  %16 = load ptr, ptr %6, align 8
  %17 = getelementptr inbounds nuw %struct.uat_esp_sa_record_t, ptr %16, i32 0, i32 5
  %18 = load ptr, ptr %17, align 8
  %19 = call noalias ptr @g_strdup(ptr noundef %18)
  %20 = load ptr, ptr %7, align 8
  store ptr %19, ptr %20, align 8
  %21 = load ptr, ptr %6, align 8
  %22 = getelementptr inbounds nuw %struct.uat_esp_sa_record_t, ptr %21, i32 0, i32 5
  %23 = load ptr, ptr %22, align 8
  %24 = call i64 @strlen(ptr noundef %23) #21
  %25 = trunc i64 %24 to i32
  %26 = load ptr, ptr %8, align 8
  store i32 %25, ptr %26, align 4
  br label %31

27:                                               ; preds = %5
  %28 = call noalias ptr @g_strdup(ptr noundef @.str.138)
  %29 = load ptr, ptr %7, align 8
  store ptr %28, ptr %29, align 8
  %30 = load ptr, ptr %8, align 8
  store i32 0, ptr %30, align 4
  br label %31

31:                                               ; preds = %27, %15
  ret void
}